target datalayout = "e-m:e-p270:32:32-p271:32:32-p272:64:64-i64:64-i128:128-f80:128-n8:16:32:64-S128"
target triple = "x86_64-pc-linux-gnu"

%"class.pxr::rapidjson::internal::Stack" = type { ptr, ptr, ptr, ptr, ptr, i64 }
%"class.pxr::rapidjson::BasicOStreamWrapper" = type { ptr }
%"class.pxr::rapidjson::Writer" = type <{ ptr, %"class.pxr::rapidjson::internal::Stack", i32, i8, [3 x i8] }>

; Function Attrs: mustprogress uwtable
define linkonce_odr void @_ZN3pxr9rapidjson19BasicOStreamWrapperISoE5FlushEv(ptr noundef nonnull align 8 dereferenceable(8) %0) #4 comdat align 2 {
  %2 = alloca ptr, align 8
  store ptr %0, ptr %2, align 8
  %3 = load ptr, ptr %2, align 8
  %4 = getelementptr inbounds nuw %"class.pxr::rapidjson::BasicOStreamWrapper", ptr %3, i32 0, i32 0
  %5 = load ptr, ptr %4, align 8
  %6 = call noundef nonnull align 8 dereferenceable(8) ptr @_ZNSo5flushEv(ptr noundef nonnull align 8 dereferenceable(8) %5)
  ret void
}

; Function Attrs: mustprogress uwtable
define linkonce_odr void @_ZN3pxr9rapidjson6WriterINS0_19BasicOStreamWrapperISoEENS0_4UTF8IcEES5_NS0_12CrtAllocatorELj0EE5FlushEv(ptr noundef nonnull align 8 dereferenceable(61) %0) #4 comdat align 2 {
  %2 = alloca ptr, align 8
  store ptr %0, ptr %2, align 8
  %3 = load ptr, ptr %2, align 8
  %4 = getelementptr inbounds nuw %"class.pxr::rapidjson::Writer", ptr %3, i32 0, i32 0
  %5 = load ptr, ptr %4, align 8
  call void @_ZN3pxr9rapidjson19BasicOStreamWrapperISoE5FlushEv(ptr noundef nonnull align 8 dereferenceable(8) %5)
  ret void
}

; Function Attrs: mustprogress nounwind uwtable
define linkonce_odr noundef zeroext i1 @_ZNK3pxr9rapidjson8internal5StackINS0_12CrtAllocatorEE5EmptyEv(ptr noundef nonnull align 8 dereferenceable(48) %0) #5 comdat align 2 {
  %2 = alloca ptr, align 8
  store ptr %0, ptr %2, align 8
  %3 = load ptr, ptr %2, align 8
  %4 = getelementptr inbounds nuw %"class.pxr::rapidjson::internal::Stack", ptr %3, i32 0, i32 3
  %5 = load ptr, ptr %4, align 8
  %6 = getelementptr inbounds nuw %"class.pxr::rapidjson::internal::Stack", ptr %3, i32 0, i32 2
  %7 = load ptr, ptr %6, align 8
  %8 = icmp eq ptr %5, %7
  ret i1 %8
}

; Function Attrs: mustprogress uwtable
define linkonce_odr noundef zeroext i1 @_ZN3pxr9rapidjson6WriterINS0_19BasicOStreamWrapperISoEENS0_4UTF8IcEES5_NS0_12CrtAllocatorELj0EE8EndValueEb(ptr noundef nonnull align 8 dereferenceable(61) %0, i1 noundef zeroext %1) #4 comdat align 2 {
  %3 = alloca ptr, align 8
  %4 = alloca i8, align 1
  store ptr %0, ptr %3, align 8
  %5 = zext i1 %1 to i8
  store i8 %5, ptr %4, align 1
  %6 = load ptr, ptr %3, align 8
  %7 = getelementptr inbounds nuw %"class.pxr::rapidjson::Writer", ptr %6, i32 0, i32 1
  %8 = call noundef zeroext i1 @_ZNK3pxr9rapidjson8internal5StackINS0_12CrtAllocatorEE5EmptyEv(ptr noundef nonnull align 8 dereferenceable(48) %7)
  %9 = xor i1 %8, true
  %10 = xor i1 %9, true
  br i1 %10, label %11, label %12

11:                                               ; preds = %2
  call void @_ZN3pxr9rapidjson6WriterINS0_19BasicOStreamWrapperISoEENS0_4UTF8IcEES5_NS0_12CrtAllocatorELj0EE5FlushEv(ptr noundef nonnull align 8 dereferenceable(61) %6)
  br label %12

12:                                               ; preds = %11, %2
  %13 = load i8, ptr %4, align 1
  %14 = trunc i8 %13 to i1
  ret i1 %14
}

; Function Attrs: mustprogress uwtable
define linkonce_odr noundef zeroext i1 @_ZN3pxr9rapidjson12PrettyWriterINS0_19BasicOStreamWrapperISoEENS0_4UTF8IcEES5_NS0_12CrtAllocatorELj0EE6StringEPKcjb(ptr noundef nonnull align 8 dereferenceable(72) %0, ptr noundef %1, i32 noundef %2, i1 noundef zeroext %3) #4 comdat align 2 {
  %5 = alloca ptr, align 8
  %6 = alloca ptr, align 8
  %7 = alloca i32, align 4
  %8 = alloca i8, align 1
  store ptr %0, ptr %5, align 8
  store ptr %1, ptr %6, align 8
  store i32 %2, ptr %7, align 4
  %9 = zext i1 %3 to i8
  store i8 %9, ptr %8, align 1
  %10 = load ptr, ptr %5, align 8
  call void @_ZN3pxr9rapidjson12PrettyWriterINS0_19BasicOStreamWrapperISoEENS0_4UTF8IcEES5_NS0_12CrtAllocatorELj0EE12PrettyPrefixENS0_4TypeE(ptr noundef nonnull align 8 dereferenceable(72) %10, i32 noundef 5)
  %11 = load ptr, ptr %6, align 8
  %12 = load i32, ptr %7, align 4
  %13 = call noundef zeroext i1 @_ZN3pxr9rapidjson6WriterINS0_19BasicOStreamWrapperISoEENS0_4UTF8IcEES5_NS0_12CrtAllocatorELj0EE11WriteStringEPKcj(ptr noundef nonnull align 8 dereferenceable(61) %10, ptr noundef %11, i32 noundef %12)
  %14 = call noundef zeroext i1 @_ZN3pxr9rapidjson6WriterINS0_19BasicOStreamWrapperISoEENS0_4UTF8IcEES5_NS0_12CrtAllocatorELj0EE8EndValueEb(ptr noundef nonnull align 8 dereferenceable(61) %10, i1 noundef zeroext %13)
  ret i1 %14
}

; Function Attrs: mustprogress uwtable
define linkonce_odr noundef zeroext i1 @_ZN3pxr9rapidjson12PrettyWriterINS0_19BasicOStreamWrapperISoEENS0_4UTF8IcEES5_NS0_12CrtAllocatorELj0EE3KeyEPKcjb(ptr noundef nonnull align 8 dereferenceable(72) %0, ptr noundef %1, i32 noundef %2, i1 noundef zeroext %3) #4 comdat align 2 {
  %5 = alloca ptr, align 8
  %6 = alloca ptr, align 8
  %7 = alloca i32, align 4
  %8 = alloca i8, align 1
  store ptr %0, ptr %5, align 8
  store ptr %1, ptr %6, align 8
  store i32 %2, ptr %7, align 4
  %9 = zext i1 %3 to i8
  store i8 %9, ptr %8, align 1
  %10 = load ptr, ptr %5, align 8
  %11 = load ptr, ptr %6, align 8
  %12 = load i32, ptr %7, align 4
  %13 = load i8, ptr %8, align 1
  %14 = trunc i8 %13 to i1
  %15 = call noundef zeroext i1 @_ZN3pxr9rapidjson12PrettyWriterINS0_19BasicOStreamWrapperISoEENS0_4UTF8IcEES5_NS0_12CrtAllocatorELj0EE6StringEPKcjb(ptr noundef nonnull align 8 dereferenceable(72) %10, ptr noundef %11, i32 noundef %12, i1 noundef zeroext %14)
  ret i1 %15
}

; Function Attrs: mustprogress uwtable
define internal noundef zeroext i1 @_ZN32pxrInternal_v0_24__pxrReserved__12_GLOBAL__N_120Js_PolymorphicWriterIN12_GLOBAL__N_110_WriterFixIN3pxr9rapidjson12PrettyWriterINS5_19BasicOStreamWrapperISoEENS5_4UTF8IcEESA_NS5_12CrtAllocatorELj0EEEEEE3KeyEPKcm(ptr noundef nonnull align 8 dereferenceable(80) %0, ptr noundef %1, i64 noundef %2) unnamed_addr #4 align 2 {
  %4 = alloca ptr, align 8
  %5 = alloca ptr, align 8
  %6 = alloca i64, align 8
  store ptr %0, ptr %4, align 8
  store ptr %1, ptr %5, align 8
  store i64 %2, ptr %6, align 8
  %7 = load ptr, ptr %4, align 8
  %8 = getelementptr inbounds i8, ptr %7, i64 8
  %9 = load ptr, ptr %5, align 8
  %10 = load i64, ptr %6, align 8
  %11 = trunc i64 %10 to i32
  %12 = call noundef zeroext i1 @_ZN3pxr9rapidjson12PrettyWriterINS0_19BasicOStreamWrapperISoEENS0_4UTF8IcEES5_NS0_12CrtAllocatorELj0EE3KeyEPKcjb(ptr noundef nonnull align 8 dereferenceable(72) %8, ptr noundef %9, i32 noundef %11, i1 noundef zeroext false)
  ret i1 %12
}